; Function Attrs: mustprogress uwtable
define hidden void @_Z8pj_inv3d6PJ_XYZP8PJconsts(ptr dead_on_unwind noalias writable writeonly sret(%struct.PJ_LPZ) align 8 captures(none) initializes((0, 24)) %0, ptr noundef readonly byval(%struct.PJ_XYZ) align 8 captures(none) %1, ptr noundef %2) local_unnamed_addr #0 {
  %4 = alloca %union.PJ_COORD, align 8
  %5 = alloca %union.PJ_COORD, align 8
  %6 = alloca %struct.PJ_LPZ, align 8
  %7 = alloca %union.PJ_COORD, align 8
  %8 = alloca %union.PJ_COORD, align 8
  %9 = alloca %union.PJ_COORD, align 8
  call void @llvm.lifetime.start.p0(i64 32, ptr nonnull %4) #6
  %10 = getelementptr inbounds nuw i8, ptr %4, i64 24
  store i64 0, ptr %10, align 8
  call void @llvm.memcpy.p0.p0.i64(ptr noundef nonnull align 8 dereferenceable(24) %4, ptr noundef nonnull align 8 dereferenceable(24) %1, i64 24, i1 false), !tbaa.struct !65
  %11 = load ptr, ptr %2, align 8, !tbaa !7
  %12 = getelementptr inbounds nuw i8, ptr %11, i64 32
  %13 = load i32, ptr %12, align 8, !tbaa !37
  store i32 0, ptr %12, align 8, !tbaa !37
  %14 = getelementptr inbounds nuw i8, ptr %2, i64 372
  %15 = load i32, ptr %14, align 4, !tbaa !61
  %.not = icmp eq i32 %15, 0
  br i1 %.not, label %16, label %17

16:                                               ; preds = %3
  call fastcc void @_ZL11inv_prepareP8PJconstsR8PJ_COORD(ptr noundef nonnull %2, ptr noundef nonnull align 8 dereferenceable(32) %4)
  br label %17

17:                                               ; preds = %16, %3
  %18 = load double, ptr %4, align 8, !tbaa !62
  %19 = fcmp oeq double %18, 0x7FF0000000000000
  br i1 %19, label %20, label %21

20:                                               ; preds = %17
  call void @llvm.lifetime.start.p0(i64 32, ptr nonnull %5) #6
  call void @_Z16proj_coord_errorv(ptr dead_on_unwind nonnull writable sret(%union.PJ_COORD) align 8 %5)
  call void @llvm.memcpy.p0.p0.i64(ptr noundef nonnull align 8 dereferenceable(24) %0, ptr noundef nonnull align 8 dereferenceable(24) %5, i64 24, i1 false), !tbaa.struct !65
  call void @llvm.lifetime.end.p0(i64 32, ptr nonnull %5) #6
  br label %51

21:                                               ; preds = %17
  %22 = getelementptr inbounds nuw i8, ptr %2, i64 128
  %23 = load ptr, ptr %22, align 8, !tbaa !64
  %.not20 = icmp eq ptr %23, null
  br i1 %.not20, label %25, label %24

24:                                               ; preds = %21
  call void @llvm.lifetime.start.p0(i64 24, ptr nonnull %6) #6
  call void %23(ptr dead_on_unwind nonnull writable sret(%struct.PJ_LPZ) align 8 %6, ptr noundef nonnull byval(%struct.PJ_XYZ) align 8 %4, ptr noundef nonnull %2)
  call void @llvm.memcpy.p0.p0.i64(ptr noundef nonnull align 8 dereferenceable(24) %4, ptr noundef nonnull align 8 dereferenceable(24) %6, i64 24, i1 false), !tbaa.struct !65
  call void @llvm.lifetime.end.p0(i64 24, ptr nonnull %6) #6
  br label %thread-pre-split

25:                                               ; preds = %21
  %26 = getelementptr inbounds nuw i8, ptr %2, i64 144
  %27 = load ptr, ptr %26, align 8, !tbaa !66
  %.not21 = icmp eq ptr %27, null
  br i1 %.not21, label %29, label %28

28:                                               ; preds = %25
  call void %27(ptr noundef nonnull align 8 dereferenceable(32) %4, ptr noundef nonnull %2)
  br label %thread-pre-split

29:                                               ; preds = %25
  %30 = getelementptr inbounds nuw i8, ptr %2, i64 112
  %31 = load ptr, ptr %30, align 8, !tbaa !63
  %.not22 = icmp eq ptr %31, null
  br i1 %.not22, label %36, label %32

32:                                               ; preds = %29
  %.sroa.2.0..sroa_idx = getelementptr inbounds nuw i8, ptr %4, i64 8
  %.sroa.2.0.copyload = load double, ptr %.sroa.2.0..sroa_idx, align 8, !tbaa !3
  %33 = tail call { double, double } %31(double %18, double %.sroa.2.0.copyload, ptr noundef nonnull %2)
  %34 = extractvalue { double, double } %33, 0
  %35 = extractvalue { double, double } %33, 1
  store double %34, ptr %4, align 8, !tbaa !3
  store double %35, ptr %.sroa.2.0..sroa_idx, align 8, !tbaa !3
  br label %38

36:                                               ; preds = %29
  %37 = tail call i32 @proj_errno_set(ptr noundef nonnull %2, i32 noundef 4098)
  call void @llvm.lifetime.start.p0(i64 32, ptr nonnull %7) #6
  call void @_Z16proj_coord_errorv(ptr dead_on_unwind nonnull writable sret(%union.PJ_COORD) align 8 %7)
  call void @llvm.memcpy.p0.p0.i64(ptr noundef nonnull align 8 dereferenceable(24) %0, ptr noundef nonnull align 8 dereferenceable(24) %7, i64 24, i1 false), !tbaa.struct !65
  call void @llvm.lifetime.end.p0(i64 32, ptr nonnull %7) #6
  br label %51

thread-pre-split:                                 ; preds = %24, %28
  %.pr = load double, ptr %4, align 8, !tbaa !62
  br label %38

38:                                               ; preds = %thread-pre-split, %32
  %39 = phi double [ %.pr, %thread-pre-split ], [ %34, %32 ]
  %40 = fcmp oeq double %39, 0x7FF0000000000000
  br i1 %40, label %41, label %42

41:                                               ; preds = %38
  call void @llvm.lifetime.start.p0(i64 32, ptr nonnull %8) #6
  call void @_Z16proj_coord_errorv(ptr dead_on_unwind nonnull writable sret(%union.PJ_COORD) align 8 %8)
  call void @llvm.memcpy.p0.p0.i64(ptr noundef nonnull align 8 dereferenceable(24) %0, ptr noundef nonnull align 8 dereferenceable(24) %8, i64 24, i1 false), !tbaa.struct !65
  call void @llvm.lifetime.end.p0(i64 32, ptr nonnull %8) #6
  br label %51

42:                                               ; preds = %38
  %43 = getelementptr inbounds nuw i8, ptr %2, i64 376
  %44 = load i32, ptr %43, align 8, !tbaa !67
  %.not23 = icmp eq i32 %44, 0
  br i1 %.not23, label %45, label %46

45:                                               ; preds = %42
  call fastcc void @_ZL12inv_finalizeP8PJconstsR8PJ_COORD(ptr noundef nonnull %2, ptr noundef nonnull align 8 dereferenceable(32) %4)
  br label %46

46:                                               ; preds = %45, %42
  call void @llvm.lifetime.start.p0(i64 32, ptr nonnull %9) #6
  %.val = load ptr, ptr %2, align 8, !tbaa !7
  %47 = getelementptr inbounds nuw i8, ptr %.val, i64 32
  %48 = load i32, ptr %47, align 8, !tbaa !37, !noalias !91
  %.not.i = icmp eq i32 %48, 0
  br i1 %.not.i, label %50, label %49

49:                                               ; preds = %46
  call void @_Z16proj_coord_errorv(ptr dead_on_unwind nonnull writable sret(%union.PJ_COORD) align 8 %9)
  br label %_ZL14error_or_coordP8PJconsts8PJ_COORDi.exit

50:                                               ; preds = %46
  store i32 %13, ptr %47, align 8, !tbaa !37, !noalias !91
  call void @llvm.memcpy.p0.p0.i64(ptr noundef nonnull align 8 dereferenceable(32) %9, ptr noundef nonnull align 8 dereferenceable(32) %4, i64 32, i1 false)
  br label %_ZL14error_or_coordP8PJconsts8PJ_COORDi.exit

_ZL14error_or_coordP8PJconsts8PJ_COORDi.exit:     ; preds = %49, %50
  call void @llvm.memcpy.p0.p0.i64(ptr noundef nonnull align 8 dereferenceable(24) %0, ptr noundef nonnull align 8 dereferenceable(24) %9, i64 24, i1 false), !tbaa.struct !65
  call void @llvm.lifetime.end.p0(i64 32, ptr nonnull %9) #6
  br label %51

51:                                               ; preds = %_ZL14error_or_coordP8PJconsts8PJ_COORDi.exit, %41, %36, %20
  call void @llvm.lifetime.end.p0(i64 32, ptr nonnull %4) #6
  ret void
}